target datalayout = "e-m:e-p270:32:32-p271:32:32-p272:64:64-i64:64-i128:128-f80:128-n8:16:32:64-S128"
target triple = "x86_64-pc-linux-gnu"

@.str = private unnamed_addr constant [14 x i8] c"unknown error\00", align 1
@.str.1 = private unnamed_addr constant [41 x i8] c"page_size must be divisible by wbuf_size\00", align 1
@.str.2 = private unnamed_addr constant [35 x i8] c"wbuf_count must be >= page_buckets\00", align 1
@.str.3 = private unnamed_addr constant [25 x i8] c"page_buckets must be > 0\00", align 1
@.str.4 = private unnamed_addr constant [57 x i8] c"page_size and wbuf_size must be divisible by 1024*1024*2\00", align 1
@.str.5 = private unnamed_addr constant [73 x i8] c"page_count must total to < 65536. Increase page_size or lower path sizes\00", align 1
@.str.6 = private unnamed_addr constant [25 x i8] c"failed calloc for engine\00", align 1
@.str.7 = private unnamed_addr constant [20 x i8] c"failed to open file\00", align 1

; Function Attrs: nounwind uwtable
define dso_local ptr @extstore_err(i32 noundef %0) #0 {
  %2 = alloca i32, align 4
  %3 = alloca ptr, align 8
  store i32 %0, ptr %2, align 4, !tbaa !27
  call void @llvm.lifetime.start.p0(i64 8, ptr %3) #8
  store ptr @.str, ptr %3, align 8, !tbaa !72
  %4 = load i32, ptr %2, align 4, !tbaa !27
  switch i32 %4, label %12 [
    i32 1, label %5
    i32 2, label %6
    i32 3, label %7
    i32 4, label %8
    i32 5, label %9
    i32 6, label %10
    i32 7, label %11
    i32 8, label %12
  ]

5:                                                ; preds = %1
  store ptr @.str.1, ptr %3, align 8, !tbaa !72
  br label %12

6:                                                ; preds = %1
  store ptr @.str.2, ptr %3, align 8, !tbaa !72
  br label %12

7:                                                ; preds = %1
  store ptr @.str.3, ptr %3, align 8, !tbaa !72
  br label %12

8:                                                ; preds = %1
  store ptr @.str.4, ptr %3, align 8, !tbaa !72
  br label %12

9:                                                ; preds = %1
  store ptr @.str.5, ptr %3, align 8, !tbaa !72
  br label %12

10:                                               ; preds = %1
  store ptr @.str.6, ptr %3, align 8, !tbaa !72
  br label %12

11:                                               ; preds = %1
  store ptr @.str.7, ptr %3, align 8, !tbaa !72
  br label %12

12:                                               ; preds = %1, %1, %11, %10, %9, %8, %7, %6, %5
  %13 = load ptr, ptr %3, align 8, !tbaa !72
  call void @llvm.lifetime.end.p0(i64 8, ptr %3) #8
  ret ptr %13
}